; Function Attrs: mustprogress nounwind uwtable
define hidden noundef ptr @_ZN11Compilation14cha_exact_typeEP6ciType(ptr nocapture noundef nonnull readonly align 8 dereferenceable(704) %0, ptr noundef %1) local_unnamed_addr #1 align 2 {
  %.not = icmp eq ptr %1, null
  br i1 %.not, label %_ZN15ciInstanceKlass12has_subklassEv.exit.thread, label %3

3:                                                ; preds = %2
  %4 = getelementptr inbounds i8, ptr %1, i64 16
  %5 = load ptr, ptr %4, align 8
  %.not.i = icmp eq ptr %5, null
  br i1 %.not.i, label %_ZNK10ciMetadata9is_loadedEv.exit, label %_ZNK10ciMetadata9is_loadedEv.exit.thread

_ZNK10ciMetadata9is_loadedEv.exit:                ; preds = %3
  %6 = load ptr, ptr %1, align 8
  %7 = getelementptr inbounds i8, ptr %6, i64 32
  %8 = load ptr, ptr %7, align 8
  %9 = tail call noundef zeroext i1 %8(ptr noundef nonnull align 8 dereferenceable(24) %1) #7
  br i1 %9, label %_ZNK10ciMetadata9is_loadedEv.exit.thread, label %_ZN15ciInstanceKlass12has_subklassEv.exit.thread

_ZNK10ciMetadata9is_loadedEv.exit.thread:         ; preds = %3, %_ZNK10ciMetadata9is_loadedEv.exit
  %10 = load ptr, ptr %1, align 8
  %11 = getelementptr inbounds i8, ptr %10, i64 80
  %12 = load ptr, ptr %11, align 8
  %13 = tail call noundef zeroext i1 %12(ptr noundef nonnull align 8 dereferenceable(24) %1) #7
  br i1 %13, label %14, label %_ZN15ciInstanceKlass12has_subklassEv.exit.thread

14:                                               ; preds = %_ZNK10ciMetadata9is_loadedEv.exit.thread
  %15 = getelementptr inbounds i8, ptr %1, i64 68
  %16 = load i32, ptr %15, align 4
  %17 = icmp eq i32 %16, 2
  br i1 %17, label %_ZN15ciInstanceKlass12has_subklassEv.exit.thread, label %18

18:                                               ; preds = %14
  %19 = getelementptr inbounds i8, ptr %1, i64 80
  %.sroa.0.0.copyload.i.i = load i64, ptr %19, align 8
  %20 = and i64 %.sroa.0.0.copyload.i.i, 16
  %.not.i11 = icmp eq i64 %20, 0
  br i1 %.not.i11, label %_ZN15ciInstanceKlass12has_subklassEv.exit, label %_ZN15ciInstanceKlass12has_subklassEv.exit.thread13

_ZN15ciInstanceKlass12has_subklassEv.exit:        ; preds = %18
  %21 = tail call noundef zeroext i1 @_ZN15ciInstanceKlass27compute_shared_has_subklassEv(ptr noundef nonnull align 8 dereferenceable(144) %1) #7
  br i1 %21, label %_ZN15ciInstanceKlass12has_subklassEv.exit.thread, label %_ZN15ciInstanceKlass12has_subklassEv.exit.thread13

_ZN15ciInstanceKlass12has_subklassEv.exit.thread13: ; preds = %18, %_ZN15ciInstanceKlass12has_subklassEv.exit
  %22 = load ptr, ptr %1, align 8
  %23 = getelementptr inbounds i8, ptr %22, i64 184
  %24 = load ptr, ptr %23, align 8
  %25 = tail call noundef zeroext i1 %24(ptr noundef nonnull align 8 dereferenceable(144) %1) #7
  br i1 %25, label %_ZN15ciInstanceKlass12has_subklassEv.exit.thread, label %26

26:                                               ; preds = %_ZN15ciInstanceKlass12has_subklassEv.exit.thread13
  %27 = getelementptr inbounds i8, ptr %0, i64 32
  %28 = load ptr, ptr %27, align 8
  %29 = getelementptr inbounds i8, ptr %28, i64 80
  %30 = load ptr, ptr %29, align 8
  tail call void @_ZN12Dependencies16assert_leaf_typeEP7ciKlass(ptr noundef nonnull align 8 dereferenceable(192) %30, ptr noundef nonnull %1) #7
  br label %_ZN15ciInstanceKlass12has_subklassEv.exit.thread

_ZN15ciInstanceKlass12has_subklassEv.exit.thread: ; preds = %14, %2, %_ZNK10ciMetadata9is_loadedEv.exit, %_ZNK10ciMetadata9is_loadedEv.exit.thread, %_ZN15ciInstanceKlass12has_subklassEv.exit.thread13, %_ZN15ciInstanceKlass12has_subklassEv.exit, %26
  %.0 = phi ptr [ %1, %26 ], [ null, %_ZN15ciInstanceKlass12has_subklassEv.exit ], [ null, %_ZN15ciInstanceKlass12has_subklassEv.exit.thread13 ], [ null, %_ZNK10ciMetadata9is_loadedEv.exit.thread ], [ null, %_ZNK10ciMetadata9is_loadedEv.exit ], [ null, %2 ], [ null, %14 ]
  ret ptr %.0
}